; Function Attrs: nounwind uwtable
define ptr @l___private_Lean_Elab_GuardMsgs_0__Lean_Elab_Tactic_GuardMsgs_messageToStringWithoutPos___lambda__3(ptr noundef %0, ptr noundef %1, ptr noundef readnone captures(none) %2, ptr noundef %3) local_unnamed_addr #0 {
  %5 = load ptr, ptr @l___private_Lean_Elab_GuardMsgs_0__Lean_Elab_Tactic_GuardMsgs_messageToStringWithoutPos___lambda__3___closed__1, align 8, !tbaa !4
  %6 = tail call zeroext i8 @l_Lean_Message_isTrace(ptr noundef %0) #7
  %7 = icmp eq i8 %6, 0
  br i1 %7, label %8, label %11

8:                                                ; preds = %4
  %9 = getelementptr inbounds nuw i8, ptr %0, i64 49
  %10 = load i8, ptr %9, align 1, !tbaa !14
  %switch.selectcmp = icmp eq i8 %10, 1
  %switch.select = select i1 %switch.selectcmp, ptr @l___private_Lean_Elab_GuardMsgs_0__Lean_Elab_Tactic_GuardMsgs_messageToStringWithoutPos___lambda__3___closed__3, ptr @l___private_Lean_Elab_GuardMsgs_0__Lean_Elab_Tactic_GuardMsgs_messageToStringWithoutPos___lambda__3___closed__4
  %switch.selectcmp33 = icmp eq i8 %10, 0
  %switch.select34 = select i1 %switch.selectcmp33, ptr @l___private_Lean_Elab_GuardMsgs_0__Lean_Elab_Tactic_GuardMsgs_messageToStringWithoutPos___lambda__3___closed__2, ptr %switch.select
  br label %11

11:                                               ; preds = %4, %8
  %l___private_Lean_Elab_GuardMsgs_0__Lean_Elab_Tactic_GuardMsgs_messageToStringWithoutPos___lambda__3___closed__2.sink = phi ptr [ %switch.select34, %8 ], [ @l___private_Lean_Elab_GuardMsgs_0__Lean_Elab_Tactic_GuardMsgs_messageToStringWithoutPos___lambda__3___closed__5, %4 ]
  %12 = load ptr, ptr %l___private_Lean_Elab_GuardMsgs_0__Lean_Elab_Tactic_GuardMsgs_messageToStringWithoutPos___lambda__3___closed__2.sink, align 8, !tbaa !4
  %13 = tail call ptr @lean_string_append(ptr noundef %12, ptr noundef %1) #7
  %14 = tail call ptr @lean_apply_3(ptr noundef %5, ptr noundef %13, ptr noundef nonnull inttoptr (i64 1 to ptr), ptr noundef %3) #7
  ret ptr %14
}